(dp1
S'project_paths'
p2
(lp3
V/home/lei/DehuaWorkSpace/second_level_checker/libsvm-3.18/python
p4
aV/home/lei/DehuaWorkSpace/second_level_checker/libsvm-3.18/python/testSvm
p5
asS'name'
p6
Vpython
p7
s.